; Function Attrs: mustprogress nounwind uwtable
define hidden noundef i64 @_ZNK10SerialHeap12max_capacityEv(ptr nocapture noundef nonnull readonly align 8 dereferenceable(192) %0) unnamed_addr #0 align 2 {
  %2 = getelementptr inbounds i8, ptr %0, i64 104
  %3 = load ptr, ptr %2, align 8
  %4 = load ptr, ptr %3, align 8
  %5 = getelementptr inbounds i8, ptr %4, i64 24
  %6 = load ptr, ptr %5, align 8
  %7 = tail call noundef i64 %6(ptr noundef nonnull align 8 dereferenceable(744) %3) #16
  %8 = getelementptr inbounds i8, ptr %0, i64 112
  %9 = load ptr, ptr %8, align 8
  %10 = load ptr, ptr %9, align 8
  %11 = getelementptr inbounds i8, ptr %10, i64 24
  %12 = load ptr, ptr %11, align 8
  %13 = tail call noundef i64 %12(ptr noundef nonnull align 8 dereferenceable(152) %9) #16
  %14 = add i64 %13, %7
  ret i64 %14
}